   1              		.cpu cortex-m4
   2              		.arch armv7e-m
   3              		.fpu softvfp
   4              		.eabi_attribute 20, 1
   5              		.eabi_attribute 21, 1
   6              		.eabi_attribute 23, 3
   7              		.eabi_attribute 24, 1
   8              		.eabi_attribute 25, 1
   9              		.eabi_attribute 26, 1
  10              		.eabi_attribute 30, 4
  11              		.eabi_attribute 34, 1
  12              		.eabi_attribute 18, 4
  13              		.file	"simpleserial.c"
  14              		.text
  15              	.Ltext0:
  16              		.cfi_sections	.debug_frame
  17              		.file 1 "../../base/./simpleserial/simpleserial.c"
  18              		.section	.text.ss_crc,"ax",%progbits
  19              		.align	1
  20              		.global	ss_crc
  21              		.syntax unified
  22              		.thumb
  23              		.thumb_func
  25              	ss_crc:
  26              	.LVL0:
  27              	.LFB0:
   1:../../base/./simpleserial/simpleserial.c **** // simpleserial.c
   2:../../base/./simpleserial/simpleserial.c **** 
   3:../../base/./simpleserial/simpleserial.c **** #include "simpleserial.h"
   4:../../base/./simpleserial/simpleserial.c **** #include <stdint.h>
   5:../../base/./simpleserial/simpleserial.c **** #include "hal.h"
   6:../../base/./simpleserial/simpleserial.c **** 
   7:../../base/./simpleserial/simpleserial.c **** 
   8:../../base/./simpleserial/simpleserial.c **** #define MAX_SS_CMDS 32
   9:../../base/./simpleserial/simpleserial.c **** static int num_commands = 0;
  10:../../base/./simpleserial/simpleserial.c **** 
  11:../../base/./simpleserial/simpleserial.c **** 
  12:../../base/./simpleserial/simpleserial.c **** //#define SS_VER_1_0 0
  13:../../base/./simpleserial/simpleserial.c **** //#define SS_VER_1_1 1
  14:../../base/./simpleserial/simpleserial.c **** //#define SS_VER_2_0 2
  15:../../base/./simpleserial/simpleserial.c **** 
  16:../../base/./simpleserial/simpleserial.c **** 
  17:../../base/./simpleserial/simpleserial.c **** // 0xA6 formerly 
  18:../../base/./simpleserial/simpleserial.c **** #define CW_CRC 0x4D 
  19:../../base/./simpleserial/simpleserial.c **** uint8_t ss_crc(uint8_t *buf, uint8_t len)
  20:../../base/./simpleserial/simpleserial.c **** {
  28              		.loc 1 20 1 view -0
  29              		.cfi_startproc
  30              		@ args = 0, pretend = 0, frame = 0
  31              		@ frame_needed = 0, uses_anonymous_args = 0
  32              		.loc 1 20 1 is_stmt 0 view .LVU1
  33 0000 10B5     		push	{r4, lr}
  34              	.LCFI0:
  35              		.cfi_def_cfa_offset 8
  36              		.cfi_offset 4, -8
  37              		.cfi_offset 14, -4
  38              		.loc 1 20 1 view .LVU2
  39 0002 0246     		mov	r2, r0
  21:../../base/./simpleserial/simpleserial.c **** 	unsigned int k = 0;
  40              		.loc 1 21 2 is_stmt 1 view .LVU3
  41              	.LVL1:
  22:../../base/./simpleserial/simpleserial.c **** 	uint8_t crc = 0x00;
  42              		.loc 1 22 2 view .LVU4
  23:../../base/./simpleserial/simpleserial.c **** 	while (len--) {
  43              		.loc 1 23 2 view .LVU5
  44 0004 0144     		add	r1, r1, r0
  45              	.LVL2:
  22:../../base/./simpleserial/simpleserial.c **** 	uint8_t crc = 0x00;
  46              		.loc 1 22 10 is_stmt 0 view .LVU6
  47 0006 0020     		movs	r0, #0
  48              	.LVL3:
  49              	.L2:
  50              		.loc 1 23 9 is_stmt 1 view .LVU7
  51              		.loc 1 23 9 is_stmt 0 view .LVU8
  52 0008 8A42     		cmp	r2, r1
  53 000a 00D1     		bne	.L6
  24:../../base/./simpleserial/simpleserial.c **** 		crc ^= *buf++;
  25:../../base/./simpleserial/simpleserial.c **** 		for (k = 0; k < 8; k++) {
  26:../../base/./simpleserial/simpleserial.c **** 			crc = crc & 0x80 ? (crc << 1) ^ CW_CRC: crc << 1;
  27:../../base/./simpleserial/simpleserial.c **** 		}
  28:../../base/./simpleserial/simpleserial.c **** 	}
  29:../../base/./simpleserial/simpleserial.c **** 	return crc;
  54              		.loc 1 29 2 is_stmt 1 view .LVU9
  30:../../base/./simpleserial/simpleserial.c **** 
  31:../../base/./simpleserial/simpleserial.c **** }
  55              		.loc 1 31 1 is_stmt 0 view .LVU10
  56 000c 10BD     		pop	{r4, pc}
  57              	.L6:
  24:../../base/./simpleserial/simpleserial.c **** 		crc ^= *buf++;
  58              		.loc 1 24 3 is_stmt 1 view .LVU11
  59              	.LVL4:
  24:../../base/./simpleserial/simpleserial.c **** 		crc ^= *buf++;
  60              		.loc 1 24 7 is_stmt 0 view .LVU12
  61 000e 12F8013B 		ldrb	r3, [r2], #1	@ zero_extendqisi2
  62              	.LVL5:
  24:../../base/./simpleserial/simpleserial.c **** 		crc ^= *buf++;
  63              		.loc 1 24 7 view .LVU13
  64 0012 0824     		movs	r4, #8
  65 0014 5840     		eors	r0, r0, r3
  66              	.LVL6:
  25:../../base/./simpleserial/simpleserial.c **** 			crc = crc & 0x80 ? (crc << 1) ^ CW_CRC: crc << 1;
  67              		.loc 1 25 3 is_stmt 1 view .LVU14
  25:../../base/./simpleserial/simpleserial.c **** 			crc = crc & 0x80 ? (crc << 1) ^ CW_CRC: crc << 1;
  68              		.loc 1 25 17 view .LVU15
  69              	.L5:
  26:../../base/./simpleserial/simpleserial.c **** 		}
  70              		.loc 1 26 4 view .LVU16
  26:../../base/./simpleserial/simpleserial.c **** 		}
  71              		.loc 1 26 8 is_stmt 0 view .LVU17
  72 0016 10F0800F 		tst	r0, #128
  73 001a 4FEA4003 		lsl	r3, r0, #1
  26:../../base/./simpleserial/simpleserial.c **** 		}
  74              		.loc 1 26 34 view .LVU18
  75 001e 18BF     		it	ne
  76 0020 83F04D03 		eorne	r3, r3, #77
  25:../../base/./simpleserial/simpleserial.c **** 			crc = crc & 0x80 ? (crc << 1) ^ CW_CRC: crc << 1;
  77              		.loc 1 25 17 view .LVU19
  78 0024 013C     		subs	r4, r4, #1
  79              	.LVL7:
  26:../../base/./simpleserial/simpleserial.c **** 		}
  80              		.loc 1 26 8 view .LVU20
  81 0026 D8B2     		uxtb	r0, r3
  82              	.LVL8:
  25:../../base/./simpleserial/simpleserial.c **** 			crc = crc & 0x80 ? (crc << 1) ^ CW_CRC: crc << 1;
  83              		.loc 1 25 23 is_stmt 1 view .LVU21
  25:../../base/./simpleserial/simpleserial.c **** 			crc = crc & 0x80 ? (crc << 1) ^ CW_CRC: crc << 1;
  84              		.loc 1 25 17 view .LVU22
  85 0028 F5D1     		bne	.L5
  86 002a EDE7     		b	.L2
  87              		.cfi_endproc
  88              	.LFE0:
  90              		.section	.text.hex_decode,"ax",%progbits
  91              		.align	1
  92              		.global	hex_decode
  93              		.syntax unified
  94              		.thumb
  95              		.thumb_func
  97              	hex_decode:
  98              	.LVL9:
  99              	.LFB1:
  32:../../base/./simpleserial/simpleserial.c **** 
  33:../../base/./simpleserial/simpleserial.c **** // [B_STUFF, CMD, SCMD, LEN, B_STUFF, DATA..., CRC, TERM]
  34:../../base/./simpleserial/simpleserial.c **** 
  35:../../base/./simpleserial/simpleserial.c **** //#define SS_VER SS_VER_2_0
  36:../../base/./simpleserial/simpleserial.c **** #if SS_VER == SS_VER_2_0
  37:../../base/./simpleserial/simpleserial.c **** #error "SS_VER_2_0 is deprecated! Use SS_VER_2_1 instead."
  38:../../base/./simpleserial/simpleserial.c **** #elif SS_VER == SS_VER_2_1
  39:../../base/./simpleserial/simpleserial.c **** 
  40:../../base/./simpleserial/simpleserial.c **** #define MAX_SS_LEN 249
  41:../../base/./simpleserial/simpleserial.c **** 
  42:../../base/./simpleserial/simpleserial.c **** int hex_decode(int len, char* ascii_buf, uint8_t* data_buf)
  43:../../base/./simpleserial/simpleserial.c **** {
 100              		.loc 1 43 1 view -0
 101              		.cfi_startproc
 102              		@ args = 0, pretend = 0, frame = 0
 103              		@ frame_needed = 0, uses_anonymous_args = 0
  44:../../base/./simpleserial/simpleserial.c **** 	for(int i = 0; i < len; i++)
 104              		.loc 1 44 2 view .LVU24
 105              	.LBB2:
 106              		.loc 1 44 6 view .LVU25
 107              		.loc 1 44 6 is_stmt 0 view .LVU26
 108              	.LBE2:
  43:../../base/./simpleserial/simpleserial.c **** 	for(int i = 0; i < len; i++)
 109              		.loc 1 43 1 view .LVU27
 110 0000 F0B5     		push	{r4, r5, r6, r7, lr}
 111              	.LCFI1:
 112              		.cfi_def_cfa_offset 20
 113              		.cfi_offset 4, -20
 114              		.cfi_offset 5, -16
 115              		.cfi_offset 6, -12
 116              		.cfi_offset 7, -8
 117              		.cfi_offset 14, -4
 118              	.LBB7:
 119              		.loc 1 44 10 view .LVU28
 120 0002 0025     		movs	r5, #0
 121              	.LBB3:
  45:../../base/./simpleserial/simpleserial.c **** 	{
  46:../../base/./simpleserial/simpleserial.c **** 		char n_hi = ascii_buf[2*i];
  47:../../base/./simpleserial/simpleserial.c **** 		char n_lo = ascii_buf[2*i+1];
 122              		.loc 1 47 8 view .LVU29
 123 0004 4F1C     		adds	r7, r1, #1
 124              	.LVL10:
 125              	.L9:
 126              		.loc 1 47 8 view .LVU30
 127              	.LBE3:
  44:../../base/./simpleserial/simpleserial.c **** 	{
 128              		.loc 1 44 19 is_stmt 1 discriminator 1 view .LVU31
 129 0006 8542     		cmp	r5, r0
 130 0008 01DB     		blt	.L19
 131              	.LBE7:
  48:../../base/./simpleserial/simpleserial.c **** 
  49:../../base/./simpleserial/simpleserial.c **** 		if(n_lo >= '0' && n_lo <= '9')
  50:../../base/./simpleserial/simpleserial.c **** 			data_buf[i] = n_lo - '0';
  51:../../base/./simpleserial/simpleserial.c **** 		else if(n_lo >= 'A' && n_lo <= 'F')
  52:../../base/./simpleserial/simpleserial.c **** 			data_buf[i] = n_lo - 'A' + 10;
  53:../../base/./simpleserial/simpleserial.c **** 		else if(n_lo >= 'a' && n_lo <= 'f')
  54:../../base/./simpleserial/simpleserial.c **** 			data_buf[i] = n_lo - 'a' + 10;
  55:../../base/./simpleserial/simpleserial.c **** 		else
  56:../../base/./simpleserial/simpleserial.c **** 			return 1;
  57:../../base/./simpleserial/simpleserial.c **** 
  58:../../base/./simpleserial/simpleserial.c **** 		if(n_hi >= '0' && n_hi <= '9')
  59:../../base/./simpleserial/simpleserial.c **** 			data_buf[i] |= (n_hi - '0') << 4;
  60:../../base/./simpleserial/simpleserial.c **** 		else if(n_hi >= 'A' && n_hi <= 'F')
  61:../../base/./simpleserial/simpleserial.c **** 			data_buf[i] |= (n_hi - 'A' + 10) << 4;
  62:../../base/./simpleserial/simpleserial.c **** 		else if(n_hi >= 'a' && n_hi <= 'f')
  63:../../base/./simpleserial/simpleserial.c **** 			data_buf[i] |= (n_hi - 'a' + 10) << 4;
  64:../../base/./simpleserial/simpleserial.c **** 		else
  65:../../base/./simpleserial/simpleserial.c **** 			return 1;
  66:../../base/./simpleserial/simpleserial.c **** 	}
  67:../../base/./simpleserial/simpleserial.c **** 
  68:../../base/./simpleserial/simpleserial.c **** 	return 0;
 132              		.loc 1 68 9 is_stmt 0 view .LVU32
 133 000a 0020     		movs	r0, #0
 134              	.LVL11:
 135              		.loc 1 68 9 view .LVU33
 136 000c 21E0     		b	.L8
 137              	.LVL12:
 138              	.L19:
 139              	.LBB8:
 140              	.LBB4:
  46:../../base/./simpleserial/simpleserial.c **** 		char n_lo = ascii_buf[2*i+1];
 141              		.loc 1 46 3 is_stmt 1 view .LVU34
  47:../../base/./simpleserial/simpleserial.c **** 
 142              		.loc 1 47 8 is_stmt 0 view .LVU35
 143 000e 17F81540 		ldrb	r4, [r7, r5, lsl #1]	@ zero_extendqisi2
  46:../../base/./simpleserial/simpleserial.c **** 		char n_lo = ascii_buf[2*i+1];
 144              		.loc 1 46 8 view .LVU36
 145 0012 11F81530 		ldrb	r3, [r1, r5, lsl #1]	@ zero_extendqisi2
 146              	.LVL13:
  47:../../base/./simpleserial/simpleserial.c **** 
 147              		.loc 1 47 3 is_stmt 1 view .LVU37
  49:../../base/./simpleserial/simpleserial.c **** 			data_buf[i] = n_lo - '0';
 148              		.loc 1 49 3 view .LVU38
  49:../../base/./simpleserial/simpleserial.c **** 			data_buf[i] = n_lo - '0';
 149              		.loc 1 49 18 is_stmt 0 view .LVU39
 150 0016 A4F13006 		sub	r6, r4, #48
 151 001a F6B2     		uxtb	r6, r6
  49:../../base/./simpleserial/simpleserial.c **** 			data_buf[i] = n_lo - '0';
 152              		.loc 1 49 5 view .LVU40
 153 001c 092E     		cmp	r6, #9
 154 001e 0CD8     		bhi	.L10
  50:../../base/./simpleserial/simpleserial.c **** 		else if(n_lo >= 'A' && n_lo <= 'F')
 155              		.loc 1 50 4 is_stmt 1 view .LVU41
  50:../../base/./simpleserial/simpleserial.c **** 		else if(n_lo >= 'A' && n_lo <= 'F')
 156              		.loc 1 50 16 is_stmt 0 view .LVU42
 157 0020 1670     		strb	r6, [r2]
 158              	.LVL14:
 159              	.L11:
  58:../../base/./simpleserial/simpleserial.c **** 			data_buf[i] |= (n_hi - '0') << 4;
 160              		.loc 1 58 3 is_stmt 1 view .LVU43
  58:../../base/./simpleserial/simpleserial.c **** 			data_buf[i] |= (n_hi - '0') << 4;
 161              		.loc 1 58 18 is_stmt 0 view .LVU44
 162 0022 A3F13004 		sub	r4, r3, #48
  58:../../base/./simpleserial/simpleserial.c **** 			data_buf[i] |= (n_hi - '0') << 4;
 163              		.loc 1 58 5 view .LVU45
 164 0026 E6B2     		uxtb	r6, r4
 165 0028 092E     		cmp	r6, #9
 166 002a 15D8     		bhi	.L15
 167              	.L22:
  61:../../base/./simpleserial/simpleserial.c **** 		else if(n_hi >= 'a' && n_hi <= 'f')
 168              		.loc 1 61 16 view .LVU46
 169 002c 1378     		ldrb	r3, [r2]	@ zero_extendqisi2
 170              	.LVL15:
  61:../../base/./simpleserial/simpleserial.c **** 		else if(n_hi >= 'a' && n_hi <= 'f')
 171              		.loc 1 61 16 view .LVU47
 172 002e 43EA0413 		orr	r3, r3, r4, lsl #4
 173              	.L21:
  63:../../base/./simpleserial/simpleserial.c **** 		else
 174              		.loc 1 63 16 view .LVU48
 175 0032 1370     		strb	r3, [r2]
 176              	.LBE4:
  44:../../base/./simpleserial/simpleserial.c **** 	{
 177              		.loc 1 44 27 is_stmt 1 view .LVU49
 178 0034 0135     		adds	r5, r5, #1
 179              	.LVL16:
  44:../../base/./simpleserial/simpleserial.c **** 	{
 180              		.loc 1 44 27 is_stmt 0 view .LVU50
 181 0036 0132     		adds	r2, r2, #1
 182 0038 E5E7     		b	.L9
 183              	.LVL17:
 184              	.L10:
 185              	.LBB5:
  51:../../base/./simpleserial/simpleserial.c **** 			data_buf[i] = n_lo - 'A' + 10;
 186              		.loc 1 51 8 is_stmt 1 view .LVU51
  51:../../base/./simpleserial/simpleserial.c **** 			data_buf[i] = n_lo - 'A' + 10;
 187              		.loc 1 51 10 is_stmt 0 view .LVU52
 188 003a A4F14106 		sub	r6, r4, #65
 189 003e 052E     		cmp	r6, #5
 190 0040 02D8     		bhi	.L12
  52:../../base/./simpleserial/simpleserial.c **** 		else if(n_lo >= 'a' && n_lo <= 'f')
 191              		.loc 1 52 4 is_stmt 1 view .LVU53
  52:../../base/./simpleserial/simpleserial.c **** 		else if(n_lo >= 'a' && n_lo <= 'f')
 192              		.loc 1 52 29 is_stmt 0 view .LVU54
 193 0042 373C     		subs	r4, r4, #55
 194              	.LVL18:
 195              	.L20:
  54:../../base/./simpleserial/simpleserial.c **** 		else
 196              		.loc 1 54 16 view .LVU55
 197 0044 1470     		strb	r4, [r2]
 198              	.LVL19:
  54:../../base/./simpleserial/simpleserial.c **** 		else
 199              		.loc 1 54 16 view .LVU56
 200 0046 ECE7     		b	.L11
 201              	.LVL20:
 202              	.L12:
  53:../../base/./simpleserial/simpleserial.c **** 			data_buf[i] = n_lo - 'a' + 10;
 203              		.loc 1 53 8 is_stmt 1 view .LVU57
  53:../../base/./simpleserial/simpleserial.c **** 			data_buf[i] = n_lo - 'a' + 10;
 204              		.loc 1 53 10 is_stmt 0 view .LVU58
 205 0048 A4F16106 		sub	r6, r4, #97
 206 004c 052E     		cmp	r6, #5
 207 004e 01D9     		bls	.L13
 208              	.LVL21:
 209              	.L18:
  56:../../base/./simpleserial/simpleserial.c **** 
 210              		.loc 1 56 11 view .LVU59
 211 0050 0120     		movs	r0, #1
 212              	.LVL22:
 213              	.L8:
  56:../../base/./simpleserial/simpleserial.c **** 
 214              		.loc 1 56 11 view .LVU60
 215              	.LBE5:
 216              	.LBE8:
  69:../../base/./simpleserial/simpleserial.c **** }
 217              		.loc 1 69 1 view .LVU61
 218 0052 F0BD     		pop	{r4, r5, r6, r7, pc}
 219              	.LVL23:
 220              	.L13:
 221              	.LBB9:
 222              	.LBB6:
  54:../../base/./simpleserial/simpleserial.c **** 		else
 223              		.loc 1 54 4 is_stmt 1 view .LVU62
  54:../../base/./simpleserial/simpleserial.c **** 		else
 224              		.loc 1 54 29 is_stmt 0 view .LVU63
 225 0054 573C     		subs	r4, r4, #87
 226              	.LVL24:
  54:../../base/./simpleserial/simpleserial.c **** 		else
 227              		.loc 1 54 29 view .LVU64
 228 0056 F5E7     		b	.L20
 229              	.LVL25:
 230              	.L15:
  60:../../base/./simpleserial/simpleserial.c **** 			data_buf[i] |= (n_hi - 'A' + 10) << 4;
 231              		.loc 1 60 8 is_stmt 1 view .LVU65
  60:../../base/./simpleserial/simpleserial.c **** 			data_buf[i] |= (n_hi - 'A' + 10) << 4;
 232              		.loc 1 60 10 is_stmt 0 view .LVU66
 233 0058 A3F14104 		sub	r4, r3, #65
 234 005c 052C     		cmp	r4, #5
 235 005e 02D8     		bhi	.L17
  61:../../base/./simpleserial/simpleserial.c **** 		else if(n_hi >= 'a' && n_hi <= 'f')
 236              		.loc 1 61 4 is_stmt 1 view .LVU67
  61:../../base/./simpleserial/simpleserial.c **** 		else if(n_hi >= 'a' && n_hi <= 'f')
 237              		.loc 1 61 31 is_stmt 0 view .LVU68
 238 0060 A3F13704 		sub	r4, r3, #55
 239 0064 E2E7     		b	.L22
 240              	.L17:
  62:../../base/./simpleserial/simpleserial.c **** 			data_buf[i] |= (n_hi - 'a' + 10) << 4;
 241              		.loc 1 62 8 is_stmt 1 view .LVU69
  62:../../base/./simpleserial/simpleserial.c **** 			data_buf[i] |= (n_hi - 'a' + 10) << 4;
 242              		.loc 1 62 10 is_stmt 0 view .LVU70
 243 0066 A3F16104 		sub	r4, r3, #97
 244 006a 052C     		cmp	r4, #5
 245 006c F0D8     		bhi	.L18
  63:../../base/./simpleserial/simpleserial.c **** 		else
 246              		.loc 1 63 4 is_stmt 1 view .LVU71
  63:../../base/./simpleserial/simpleserial.c **** 		else
 247              		.loc 1 63 16 is_stmt 0 view .LVU72
 248 006e 1478     		ldrb	r4, [r2]	@ zero_extendqisi2
  63:../../base/./simpleserial/simpleserial.c **** 		else
 249              		.loc 1 63 31 view .LVU73
 250 0070 573B     		subs	r3, r3, #87
 251              	.LVL26:
  63:../../base/./simpleserial/simpleserial.c **** 		else
 252              		.loc 1 63 16 view .LVU74
 253 0072 44EA0313 		orr	r3, r4, r3, lsl #4
 254              	.LVL27:
  63:../../base/./simpleserial/simpleserial.c **** 		else
 255              		.loc 1 63 16 view .LVU75
 256 0076 DCE7     		b	.L21
 257              	.LBE6:
 258              	.LBE9:
 259              		.cfi_endproc
 260              	.LFE1:
 262              		.section	.text.ss_puts,"ax",%progbits
 263              		.align	1
 264              		.global	ss_puts
 265              		.syntax unified
 266              		.thumb
 267              		.thumb_func
 269              	ss_puts:
 270              	.LVL28:
 271              	.LFB2:
  70:../../base/./simpleserial/simpleserial.c **** 
  71:../../base/./simpleserial/simpleserial.c **** typedef struct ss_cmd
  72:../../base/./simpleserial/simpleserial.c **** {
  73:../../base/./simpleserial/simpleserial.c **** 	char c;
  74:../../base/./simpleserial/simpleserial.c **** 	unsigned int len;
  75:../../base/./simpleserial/simpleserial.c **** 	uint8_t (*fp)(uint8_t, uint8_t, uint8_t, uint8_t *);
  76:../../base/./simpleserial/simpleserial.c **** } ss_cmd;
  77:../../base/./simpleserial/simpleserial.c **** static ss_cmd commands[MAX_SS_CMDS];
  78:../../base/./simpleserial/simpleserial.c **** 
  79:../../base/./simpleserial/simpleserial.c **** void ss_puts(char *x)
  80:../../base/./simpleserial/simpleserial.c **** {
 272              		.loc 1 80 1 is_stmt 1 view -0
 273              		.cfi_startproc
 274              		@ args = 0, pretend = 0, frame = 0
 275              		@ frame_needed = 0, uses_anonymous_args = 0
 276              		.loc 1 80 1 is_stmt 0 view .LVU77
 277 0000 10B5     		push	{r4, lr}
 278              	.LCFI2:
 279              		.cfi_def_cfa_offset 8
 280              		.cfi_offset 4, -8
 281              		.cfi_offset 14, -4
 282 0002 0446     		mov	r4, r0
 283              	.LVL29:
 284              	.L24:
  81:../../base/./simpleserial/simpleserial.c **** 	do {
 285              		.loc 1 81 2 is_stmt 1 discriminator 1 view .LVU78
  82:../../base/./simpleserial/simpleserial.c **** 		putch(*x);
 286              		.loc 1 82 3 discriminator 1 view .LVU79
 287 0004 2078     		ldrb	r0, [r4]	@ zero_extendqisi2
 288 0006 FFF7FEFF 		bl	putch
 289              	.LVL30:
  83:../../base/./simpleserial/simpleserial.c **** 	} while (*++x);
 290              		.loc 1 83 11 discriminator 1 view .LVU80
 291              		.loc 1 83 11 is_stmt 0 discriminator 1 view .LVU81
 292 000a 14F8013F 		ldrb	r3, [r4, #1]!	@ zero_extendqisi2
 293              	.LVL31:
 294              		.loc 1 83 11 discriminator 1 view .LVU82
 295 000e 002B     		cmp	r3, #0
 296 0010 F8D1     		bne	.L24
  84:../../base/./simpleserial/simpleserial.c **** }
 297              		.loc 1 84 1 view .LVU83
 298 0012 10BD     		pop	{r4, pc}
 299              		.loc 1 84 1 view .LVU84
 300              		.cfi_endproc
 301              	.LFE2:
 303              		.section	.text.stuff_data,"ax",%progbits
 304              		.align	1
 305              		.global	stuff_data
 306              		.syntax unified
 307              		.thumb
 308              		.thumb_func
 310              	stuff_data:
 311              	.LVL32:
 312              	.LFB5:
  85:../../base/./simpleserial/simpleserial.c **** 
  86:../../base/./simpleserial/simpleserial.c **** #define FRAME_BYTE 0x00
  87:../../base/./simpleserial/simpleserial.c **** 
  88:../../base/./simpleserial/simpleserial.c **** uint8_t check_version(uint8_t cmd, uint8_t scmd, uint8_t len, uint8_t *data)
  89:../../base/./simpleserial/simpleserial.c **** {
  90:../../base/./simpleserial/simpleserial.c **** 	uint8_t ver = SS_VER;
  91:../../base/./simpleserial/simpleserial.c **** 	simpleserial_put('r', 1, &ver);
  92:../../base/./simpleserial/simpleserial.c **** 	return SS_ERR_OK;
  93:../../base/./simpleserial/simpleserial.c **** }
  94:../../base/./simpleserial/simpleserial.c **** 
  95:../../base/./simpleserial/simpleserial.c **** uint8_t ss_get_commands(uint8_t cmd, uint8_t scmd, uint8_t len, uint8_t *data)
  96:../../base/./simpleserial/simpleserial.c **** {
  97:../../base/./simpleserial/simpleserial.c ****     uint8_t cmd_chars[MAX_SS_CMDS];
  98:../../base/./simpleserial/simpleserial.c ****     for (uint8_t i = 0; i < (num_commands & 0xFF); i++) {
  99:../../base/./simpleserial/simpleserial.c ****         cmd_chars[i] = commands[i].c;
 100:../../base/./simpleserial/simpleserial.c ****     }
 101:../../base/./simpleserial/simpleserial.c **** 
 102:../../base/./simpleserial/simpleserial.c ****     simpleserial_put('r', num_commands & 0xFF, (void *)cmd_chars);
 103:../../base/./simpleserial/simpleserial.c ****     return 0x00;
 104:../../base/./simpleserial/simpleserial.c **** 
 105:../../base/./simpleserial/simpleserial.c **** }
 106:../../base/./simpleserial/simpleserial.c **** 
 107:../../base/./simpleserial/simpleserial.c **** uint8_t stuff_data(uint8_t *buf, uint8_t len)
 108:../../base/./simpleserial/simpleserial.c **** {
 313              		.loc 1 108 1 is_stmt 1 view -0
 314              		.cfi_startproc
 315              		@ args = 0, pretend = 0, frame = 0
 316              		@ frame_needed = 0, uses_anonymous_args = 0
 109:../../base/./simpleserial/simpleserial.c **** 	uint8_t i = 1;
 317              		.loc 1 109 2 view .LVU86
 110:../../base/./simpleserial/simpleserial.c **** 	uint8_t last = 0;
 318              		.loc 1 110 2 view .LVU87
 111:../../base/./simpleserial/simpleserial.c **** 	for (; i < len; i++) {
 319              		.loc 1 111 2 view .LVU88
 108:../../base/./simpleserial/simpleserial.c **** 	uint8_t i = 1;
 320              		.loc 1 108 1 is_stmt 0 view .LVU89
 321 0000 30B5     		push	{r4, r5, lr}
 322              	.LCFI3:
 323              		.cfi_def_cfa_offset 12
 324              		.cfi_offset 4, -12
 325              		.cfi_offset 5, -8
 326              		.cfi_offset 14, -4
 110:../../base/./simpleserial/simpleserial.c **** 	uint8_t last = 0;
 327              		.loc 1 110 10 view .LVU90
 328 0002 0022     		movs	r2, #0
 329 0004 0446     		mov	r4, r0
 109:../../base/./simpleserial/simpleserial.c **** 	uint8_t last = 0;
 330              		.loc 1 109 10 view .LVU91
 331 0006 0123     		movs	r3, #1
 332              	.LVL33:
 333              	.L27:
 334              		.loc 1 111 11 is_stmt 1 discriminator 1 view .LVU92
 335 0008 8B42     		cmp	r3, r1
 336 000a 01D3     		bcc	.L29
 112:../../base/./simpleserial/simpleserial.c **** 		if (buf[i] == FRAME_BYTE) {
 113:../../base/./simpleserial/simpleserial.c **** 			buf[last] = i - last;
 114:../../base/./simpleserial/simpleserial.c **** 			last = i;
 115:../../base/./simpleserial/simpleserial.c **** 		}
 116:../../base/./simpleserial/simpleserial.c **** 	}
 117:../../base/./simpleserial/simpleserial.c **** 	return 0x00;
 337              		.loc 1 117 2 view .LVU93
 118:../../base/./simpleserial/simpleserial.c **** }
 338              		.loc 1 118 1 is_stmt 0 view .LVU94
 339 000c 0020     		movs	r0, #0
 340              	.LVL34:
 341              		.loc 1 118 1 view .LVU95
 342 000e 30BD     		pop	{r4, r5, pc}
 343              	.LVL35:
 344              	.L29:
 112:../../base/./simpleserial/simpleserial.c **** 		if (buf[i] == FRAME_BYTE) {
 345              		.loc 1 112 3 is_stmt 1 view .LVU96
 112:../../base/./simpleserial/simpleserial.c **** 		if (buf[i] == FRAME_BYTE) {
 346              		.loc 1 112 6 is_stmt 0 view .LVU97
 347 0010 14F8015F 		ldrb	r5, [r4, #1]!	@ zero_extendqisi2
 348 0014 15B9     		cbnz	r5, .L28
 113:../../base/./simpleserial/simpleserial.c **** 			last = i;
 349              		.loc 1 113 4 is_stmt 1 view .LVU98
 113:../../base/./simpleserial/simpleserial.c **** 			last = i;
 350              		.loc 1 113 18 is_stmt 0 view .LVU99
 351 0016 9D1A     		subs	r5, r3, r2
 113:../../base/./simpleserial/simpleserial.c **** 			last = i;
 352              		.loc 1 113 14 view .LVU100
 353 0018 8554     		strb	r5, [r0, r2]
 114:../../base/./simpleserial/simpleserial.c **** 		}
 354              		.loc 1 114 4 is_stmt 1 view .LVU101
 355              	.LVL36:
 113:../../base/./simpleserial/simpleserial.c **** 			last = i;
 356              		.loc 1 113 14 is_stmt 0 view .LVU102
 357 001a 1A46     		mov	r2, r3
 358              	.LVL37:
 359              	.L28:
 111:../../base/./simpleserial/simpleserial.c **** 		if (buf[i] == FRAME_BYTE) {
 360              		.loc 1 111 19 is_stmt 1 view .LVU103
 361 001c 0133     		adds	r3, r3, #1
 362              	.LVL38:
 111:../../base/./simpleserial/simpleserial.c **** 		if (buf[i] == FRAME_BYTE) {
 363              		.loc 1 111 19 is_stmt 0 view .LVU104
 364 001e DBB2     		uxtb	r3, r3
 365              	.LVL39:
 111:../../base/./simpleserial/simpleserial.c **** 		if (buf[i] == FRAME_BYTE) {
 366              		.loc 1 111 19 view .LVU105
 367 0020 F2E7     		b	.L27
 368              		.cfi_endproc
 369              	.LFE5:
 371              		.section	.text.unstuff_data,"ax",%progbits
 372              		.align	1
 373              		.global	unstuff_data
 374              		.syntax unified
 375              		.thumb
 376              		.thumb_func
 378              	unstuff_data:
 379              	.LVL40:
 380              	.LFB6:
 119:../../base/./simpleserial/simpleserial.c **** 
 120:../../base/./simpleserial/simpleserial.c **** uint8_t unstuff_data(uint8_t *buf, uint8_t len)
 121:../../base/./simpleserial/simpleserial.c **** {
 381              		.loc 1 121 1 is_stmt 1 view -0
 382              		.cfi_startproc
 383              		@ args = 0, pretend = 0, frame = 0
 384              		@ frame_needed = 0, uses_anonymous_args = 0
 122:../../base/./simpleserial/simpleserial.c **** 	uint8_t next = buf[0];
 385              		.loc 1 122 2 view .LVU107
 121:../../base/./simpleserial/simpleserial.c **** 	uint8_t next = buf[0];
 386              		.loc 1 121 1 is_stmt 0 view .LVU108
 387 0000 30B5     		push	{r4, r5, lr}
 388              	.LCFI4:
 389              		.cfi_def_cfa_offset 12
 390              		.cfi_offset 4, -12
 391              		.cfi_offset 5, -8
 392              		.cfi_offset 14, -4
 393              		.loc 1 122 10 view .LVU109
 394 0002 0478     		ldrb	r4, [r0]	@ zero_extendqisi2
 395              	.LVL41:
 123:../../base/./simpleserial/simpleserial.c **** 	buf[0] = 0x00;
 396              		.loc 1 123 2 is_stmt 1 view .LVU110
 397              		.loc 1 123 9 is_stmt 0 view .LVU111
 398 0004 0025     		movs	r5, #0
 121:../../base/./simpleserial/simpleserial.c **** 	uint8_t next = buf[0];
 399              		.loc 1 121 1 view .LVU112
 400 0006 0246     		mov	r2, r0
 401              		.loc 1 123 9 view .LVU113
 402 0008 0570     		strb	r5, [r0]
 124:../../base/./simpleserial/simpleserial.c **** 	//len -= 1;
 125:../../base/./simpleserial/simpleserial.c **** 	uint8_t tmp = next;
 403              		.loc 1 125 2 is_stmt 1 view .LVU114
 404              	.LVL42:
 126:../../base/./simpleserial/simpleserial.c **** 	while ((next < len) && tmp != 0) {
 405              		.loc 1 126 2 view .LVU115
 122:../../base/./simpleserial/simpleserial.c **** 	buf[0] = 0x00;
 406              		.loc 1 122 10 is_stmt 0 view .LVU116
 407 000a 2046     		mov	r0, r4
 408              	.LVL43:
 409              	.L31:
 410              		.loc 1 126 22 is_stmt 1 view .LVU117
 411 000c 8842     		cmp	r0, r1
 412 000e 00D2     		bcs	.L35
 413              		.loc 1 126 22 is_stmt 0 discriminator 1 view .LVU118
 414 0010 04B9     		cbnz	r4, .L33
 415              	.L35:
 127:../../base/./simpleserial/simpleserial.c **** 		tmp = buf[next];
 128:../../base/./simpleserial/simpleserial.c **** 		buf[next] = FRAME_BYTE;
 129:../../base/./simpleserial/simpleserial.c **** 		next += tmp;
 130:../../base/./simpleserial/simpleserial.c **** 	}
 131:../../base/./simpleserial/simpleserial.c **** 	return next;
 132:../../base/./simpleserial/simpleserial.c **** }
 416              		.loc 1 132 1 view .LVU119
 417 0012 30BD     		pop	{r4, r5, pc}
 418              	.LVL44:
 419              	.L33:
 127:../../base/./simpleserial/simpleserial.c **** 		tmp = buf[next];
 420              		.loc 1 127 3 is_stmt 1 view .LVU120
 127:../../base/./simpleserial/simpleserial.c **** 		tmp = buf[next];
 421              		.loc 1 127 7 is_stmt 0 view .LVU121
 422 0014 145C     		ldrb	r4, [r2, r0]	@ zero_extendqisi2
 423              	.LVL45:
 128:../../base/./simpleserial/simpleserial.c **** 		next += tmp;
 424              		.loc 1 128 3 is_stmt 1 view .LVU122
 128:../../base/./simpleserial/simpleserial.c **** 		next += tmp;
 425              		.loc 1 128 13 is_stmt 0 view .LVU123
 426 0016 1554     		strb	r5, [r2, r0]
 129:../../base/./simpleserial/simpleserial.c **** 	}
 427              		.loc 1 129 3 is_stmt 1 view .LVU124
 129:../../base/./simpleserial/simpleserial.c **** 	}
 428              		.loc 1 129 8 is_stmt 0 view .LVU125
 429 0018 0319     		adds	r3, r0, r4
 430 001a D8B2     		uxtb	r0, r3
 431              	.LVL46:
 129:../../base/./simpleserial/simpleserial.c **** 	}
 432              		.loc 1 129 8 view .LVU126
 433 001c F6E7     		b	.L31
 434              		.cfi_endproc
 435              	.LFE6:
 437              		.section	.text.simpleserial_addcmd,"ax",%progbits
 438              		.align	1
 439              		.global	simpleserial_addcmd
 440              		.syntax unified
 441              		.thumb
 442              		.thumb_func
 444              	simpleserial_addcmd:
 445              	.LVL47:
 446              	.LFB8:
 133:../../base/./simpleserial/simpleserial.c **** 
 134:../../base/./simpleserial/simpleserial.c **** // Set up the SimpleSerial module by preparing internal commands
 135:../../base/./simpleserial/simpleserial.c **** // This just adds the "v" command for now...
 136:../../base/./simpleserial/simpleserial.c **** void simpleserial_init()
 137:../../base/./simpleserial/simpleserial.c **** {
 138:../../base/./simpleserial/simpleserial.c **** 	simpleserial_addcmd('v', 0, check_version);
 139:../../base/./simpleserial/simpleserial.c ****     simpleserial_addcmd('w', 0, ss_get_commands);
 140:../../base/./simpleserial/simpleserial.c **** }
 141:../../base/./simpleserial/simpleserial.c **** 
 142:../../base/./simpleserial/simpleserial.c **** int simpleserial_addcmd(char c, unsigned int len, uint8_t (*fp)(uint8_t, uint8_t, uint8_t, uint8_t*
 143:../../base/./simpleserial/simpleserial.c **** {
 447              		.loc 1 143 1 is_stmt 1 view -0
 448              		.cfi_startproc
 449              		@ args = 0, pretend = 0, frame = 0
 450              		@ frame_needed = 0, uses_anonymous_args = 0
 144:../../base/./simpleserial/simpleserial.c **** 	if(num_commands >= MAX_SS_CMDS) {
 451              		.loc 1 144 2 view .LVU128
 143:../../base/./simpleserial/simpleserial.c **** 	if(num_commands >= MAX_SS_CMDS) {
 452              		.loc 1 143 1 is_stmt 0 view .LVU129
 453 0000 38B5     		push	{r3, r4, r5, lr}
 454              	.LCFI5:
 455              		.cfi_def_cfa_offset 16
 456              		.cfi_offset 3, -16
 457              		.cfi_offset 4, -12
 458              		.cfi_offset 5, -8
 459              		.cfi_offset 14, -4
 460              		.loc 1 144 18 view .LVU130
 461 0002 0B4D     		ldr	r5, .L42
 462 0004 2B68     		ldr	r3, [r5]
 463              		.loc 1 144 4 view .LVU131
 464 0006 1F2B     		cmp	r3, #31
 465 0008 04DD     		ble	.L37
 145:../../base/./simpleserial/simpleserial.c **** 		putch('a');
 466              		.loc 1 145 3 is_stmt 1 view .LVU132
 467 000a 6120     		movs	r0, #97
 468              	.LVL48:
 469              	.L41:
 146:../../base/./simpleserial/simpleserial.c **** 		return 1;
 147:../../base/./simpleserial/simpleserial.c **** 	}
 148:../../base/./simpleserial/simpleserial.c **** 
 149:../../base/./simpleserial/simpleserial.c **** 	if(len >= MAX_SS_LEN) {
 150:../../base/./simpleserial/simpleserial.c **** 		putch('b');
 470              		.loc 1 150 3 is_stmt 0 view .LVU133
 471 000c FFF7FEFF 		bl	putch
 472              	.LVL49:
 151:../../base/./simpleserial/simpleserial.c **** 		return 1;
 473              		.loc 1 151 3 is_stmt 1 view .LVU134
 146:../../base/./simpleserial/simpleserial.c **** 		return 1;
 474              		.loc 1 146 10 is_stmt 0 view .LVU135
 475 0010 0120     		movs	r0, #1
 476              	.L36:
 152:../../base/./simpleserial/simpleserial.c **** 	}
 153:../../base/./simpleserial/simpleserial.c **** 
 154:../../base/./simpleserial/simpleserial.c **** 	commands[num_commands].c   = c;
 155:../../base/./simpleserial/simpleserial.c **** 	commands[num_commands].len = len;
 156:../../base/./simpleserial/simpleserial.c **** 	commands[num_commands].fp  = fp;
 157:../../base/./simpleserial/simpleserial.c **** 	num_commands++;
 158:../../base/./simpleserial/simpleserial.c **** 
 159:../../base/./simpleserial/simpleserial.c **** 	return 0;
 160:../../base/./simpleserial/simpleserial.c **** }
 477              		.loc 1 160 1 view .LVU136
 478 0012 38BD     		pop	{r3, r4, r5, pc}
 479              	.LVL50:
 480              	.L37:
 149:../../base/./simpleserial/simpleserial.c **** 		putch('b');
 481              		.loc 1 149 2 is_stmt 1 view .LVU137
 149:../../base/./simpleserial/simpleserial.c **** 		putch('b');
 482              		.loc 1 149 4 is_stmt 0 view .LVU138
 483 0014 F829     		cmp	r1, #248
 484 0016 01D9     		bls	.L39
 150:../../base/./simpleserial/simpleserial.c **** 		return 1;
 485              		.loc 1 150 3 is_stmt 1 view .LVU139
 486 0018 6220     		movs	r0, #98
 487              	.LVL51:
 150:../../base/./simpleserial/simpleserial.c **** 		return 1;
 488              		.loc 1 150 3 is_stmt 0 view .LVU140
 489 001a F7E7     		b	.L41
 490              	.LVL52:
 491              	.L39:
 154:../../base/./simpleserial/simpleserial.c **** 	commands[num_commands].len = len;
 492              		.loc 1 154 2 is_stmt 1 view .LVU141
 154:../../base/./simpleserial/simpleserial.c **** 	commands[num_commands].len = len;
 493              		.loc 1 154 29 is_stmt 0 view .LVU142
 494 001c 0C24     		movs	r4, #12
 495 001e 04FB0354 		mla	r4, r4, r3, r5
 157:../../base/./simpleserial/simpleserial.c **** 
 496              		.loc 1 157 14 view .LVU143
 497 0022 0133     		adds	r3, r3, #1
 154:../../base/./simpleserial/simpleserial.c **** 	commands[num_commands].len = len;
 498              		.loc 1 154 29 view .LVU144
 499 0024 2071     		strb	r0, [r4, #4]
 155:../../base/./simpleserial/simpleserial.c **** 	commands[num_commands].fp  = fp;
 500              		.loc 1 155 2 is_stmt 1 view .LVU145
 156:../../base/./simpleserial/simpleserial.c **** 	num_commands++;
 501              		.loc 1 156 29 is_stmt 0 view .LVU146
 502 0026 C4E90212 		strd	r1, r2, [r4, #8]
 157:../../base/./simpleserial/simpleserial.c **** 
 503              		.loc 1 157 2 is_stmt 1 view .LVU147
 157:../../base/./simpleserial/simpleserial.c **** 
 504              		.loc 1 157 14 is_stmt 0 view .LVU148
 505 002a 2B60     		str	r3, [r5]
 159:../../base/./simpleserial/simpleserial.c **** }
 506              		.loc 1 159 2 is_stmt 1 view .LVU149
 159:../../base/./simpleserial/simpleserial.c **** }
 507              		.loc 1 159 9 is_stmt 0 view .LVU150
 508 002c 0020     		movs	r0, #0
 509              	.LVL53:
 159:../../base/./simpleserial/simpleserial.c **** }
 510              		.loc 1 159 9 view .LVU151
 511 002e F0E7     		b	.L36
 512              	.L43:
 513              		.align	2
 514              	.L42:
 515 0030 00000000 		.word	.LANCHOR0
 516              		.cfi_endproc
 517              	.LFE8:
 519              		.section	.text.simpleserial_init,"ax",%progbits
 520              		.align	1
 521              		.global	simpleserial_init
 522              		.syntax unified
 523              		.thumb
 524              		.thumb_func
 526              	simpleserial_init:
 527              	.LFB7:
 137:../../base/./simpleserial/simpleserial.c **** 	simpleserial_addcmd('v', 0, check_version);
 528              		.loc 1 137 1 is_stmt 1 view -0
 529              		.cfi_startproc
 530              		@ args = 0, pretend = 0, frame = 0
 531              		@ frame_needed = 0, uses_anonymous_args = 0
 138:../../base/./simpleserial/simpleserial.c ****     simpleserial_addcmd('w', 0, ss_get_commands);
 532              		.loc 1 138 2 view .LVU153
 137:../../base/./simpleserial/simpleserial.c **** 	simpleserial_addcmd('v', 0, check_version);
 533              		.loc 1 137 1 is_stmt 0 view .LVU154
 534 0000 08B5     		push	{r3, lr}
 535              	.LCFI6:
 536              		.cfi_def_cfa_offset 8
 537              		.cfi_offset 3, -8
 538              		.cfi_offset 14, -4
 138:../../base/./simpleserial/simpleserial.c ****     simpleserial_addcmd('w', 0, ss_get_commands);
 539              		.loc 1 138 2 view .LVU155
 540 0002 064A     		ldr	r2, .L45
 541 0004 0021     		movs	r1, #0
 542 0006 7620     		movs	r0, #118
 543 0008 FFF7FEFF 		bl	simpleserial_addcmd
 544              	.LVL54:
 139:../../base/./simpleserial/simpleserial.c **** }
 545              		.loc 1 139 5 is_stmt 1 view .LVU156
 140:../../base/./simpleserial/simpleserial.c **** 
 546              		.loc 1 140 1 is_stmt 0 view .LVU157
 547 000c BDE80840 		pop	{r3, lr}
 548              	.LCFI7:
 549              		.cfi_restore 14
 550              		.cfi_restore 3
 551              		.cfi_def_cfa_offset 0
 139:../../base/./simpleserial/simpleserial.c **** }
 552              		.loc 1 139 5 view .LVU158
 553 0010 034A     		ldr	r2, .L45+4
 554 0012 0021     		movs	r1, #0
 555 0014 7720     		movs	r0, #119
 556 0016 FFF7FEBF 		b	simpleserial_addcmd
 557              	.LVL55:
 558              	.L46:
 559 001a 00BF     		.align	2
 560              	.L45:
 561 001c 00000000 		.word	check_version
 562 0020 00000000 		.word	ss_get_commands
 563              		.cfi_endproc
 564              	.LFE7:
 566              		.section	.text.simpleserial_put,"ax",%progbits
 567              		.align	1
 568              		.global	simpleserial_put
 569              		.syntax unified
 570              		.thumb
 571              		.thumb_func
 573              	simpleserial_put:
 574              	.LVL56:
 575              	.LFB10:
 161:../../base/./simpleserial/simpleserial.c **** 
 162:../../base/./simpleserial/simpleserial.c **** void simpleserial_get(void)
 163:../../base/./simpleserial/simpleserial.c **** {
 164:../../base/./simpleserial/simpleserial.c **** 	uint8_t data_buf[MAX_SS_LEN];
 165:../../base/./simpleserial/simpleserial.c **** 	uint8_t err = 0;
 166:../../base/./simpleserial/simpleserial.c **** 
 167:../../base/./simpleserial/simpleserial.c **** 	for (int i = 0; i < 4; i++) {
 168:../../base/./simpleserial/simpleserial.c **** 		data_buf[i] = getch(); //PTR, cmd, scmd, len
 169:../../base/./simpleserial/simpleserial.c **** 		if (data_buf[i] == FRAME_BYTE) {
 170:../../base/./simpleserial/simpleserial.c **** 			err = SS_ERR_FRAME_BYTE;
 171:../../base/./simpleserial/simpleserial.c **** 			goto ERROR;
 172:../../base/./simpleserial/simpleserial.c **** 		}
 173:../../base/./simpleserial/simpleserial.c **** 	}
 174:../../base/./simpleserial/simpleserial.c **** 	uint8_t next_frame = unstuff_data(data_buf, 4);
 175:../../base/./simpleserial/simpleserial.c **** 
 176:../../base/./simpleserial/simpleserial.c **** 	// check for valid command
 177:../../base/./simpleserial/simpleserial.c **** 	uint8_t c = 0;
 178:../../base/./simpleserial/simpleserial.c **** 	for(c = 0; c < num_commands; c++)
 179:../../base/./simpleserial/simpleserial.c **** 	{
 180:../../base/./simpleserial/simpleserial.c **** 		if(commands[c].c == data_buf[1])
 181:../../base/./simpleserial/simpleserial.c **** 			break;
 182:../../base/./simpleserial/simpleserial.c **** 	}
 183:../../base/./simpleserial/simpleserial.c **** 
 184:../../base/./simpleserial/simpleserial.c **** 	if (c == num_commands) {
 185:../../base/./simpleserial/simpleserial.c **** 		err = SS_ERR_CMD;
 186:../../base/./simpleserial/simpleserial.c **** 		goto ERROR;
 187:../../base/./simpleserial/simpleserial.c **** 	}
 188:../../base/./simpleserial/simpleserial.c **** 
 189:../../base/./simpleserial/simpleserial.c **** 	//check that next frame not beyond end of message
 190:../../base/./simpleserial/simpleserial.c **** 	// account for cmd, scmd, len, data, crc, end of frame
 191:../../base/./simpleserial/simpleserial.c **** 	if ((data_buf[3] + 5) < next_frame) {
 192:../../base/./simpleserial/simpleserial.c **** 		err = SS_ERR_LEN;
 193:../../base/./simpleserial/simpleserial.c **** 		goto ERROR;
 194:../../base/./simpleserial/simpleserial.c **** 	}
 195:../../base/./simpleserial/simpleserial.c **** 
 196:../../base/./simpleserial/simpleserial.c **** 	// read in data
 197:../../base/./simpleserial/simpleserial.c **** 	// eq to len + crc + frame end
 198:../../base/./simpleserial/simpleserial.c **** 	int i = 4;
 199:../../base/./simpleserial/simpleserial.c **** 	for (; i < data_buf[3] + 5; i++) {
 200:../../base/./simpleserial/simpleserial.c **** 		data_buf[i] = getch();
 201:../../base/./simpleserial/simpleserial.c **** 		if (data_buf[i] == FRAME_BYTE) {
 202:../../base/./simpleserial/simpleserial.c **** 			err = SS_ERR_FRAME_BYTE;
 203:../../base/./simpleserial/simpleserial.c **** 			goto ERROR;
 204:../../base/./simpleserial/simpleserial.c **** 		}
 205:../../base/./simpleserial/simpleserial.c **** 	}
 206:../../base/./simpleserial/simpleserial.c **** 
 207:../../base/./simpleserial/simpleserial.c **** 	//check that final byte is the FRAME_BYTE
 208:../../base/./simpleserial/simpleserial.c **** 	data_buf[i] = getch();
 209:../../base/./simpleserial/simpleserial.c **** 	if (data_buf[i] != FRAME_BYTE) {
 210:../../base/./simpleserial/simpleserial.c **** 		err = SS_ERR_LEN;
 211:../../base/./simpleserial/simpleserial.c **** 		goto ERROR;
 212:../../base/./simpleserial/simpleserial.c **** 	}
 213:../../base/./simpleserial/simpleserial.c **** 
 214:../../base/./simpleserial/simpleserial.c **** 	//fully unstuff data now
 215:../../base/./simpleserial/simpleserial.c **** 	unstuff_data(data_buf + next_frame, i - next_frame + 1);
 216:../../base/./simpleserial/simpleserial.c **** 
 217:../../base/./simpleserial/simpleserial.c **** 	//calc crc excluding original frame offset and frame end and crc
 218:../../base/./simpleserial/simpleserial.c **** 	uint8_t crc = ss_crc(data_buf+1, i-2);
 219:../../base/./simpleserial/simpleserial.c **** 	if (crc != data_buf[i-1]) {
 220:../../base/./simpleserial/simpleserial.c **** 		err = SS_ERR_CRC;
 221:../../base/./simpleserial/simpleserial.c **** 		goto ERROR;
 222:../../base/./simpleserial/simpleserial.c **** 	}
 223:../../base/./simpleserial/simpleserial.c **** 
 224:../../base/./simpleserial/simpleserial.c **** 	err = commands[c].fp(data_buf[1], data_buf[2], data_buf[3], data_buf+4);
 225:../../base/./simpleserial/simpleserial.c **** 
 226:../../base/./simpleserial/simpleserial.c **** ERROR:
 227:../../base/./simpleserial/simpleserial.c **** 	simpleserial_put('e', 0x01, &err);
 228:../../base/./simpleserial/simpleserial.c **** 	return;
 229:../../base/./simpleserial/simpleserial.c **** }
 230:../../base/./simpleserial/simpleserial.c **** 
 231:../../base/./simpleserial/simpleserial.c **** void simpleserial_put(char c, uint8_t size, uint8_t* output)
 232:../../base/./simpleserial/simpleserial.c **** {
 576              		.loc 1 232 1 is_stmt 1 view -0
 577              		.cfi_startproc
 578              		@ args = 0, pretend = 0, frame = 256
 579              		@ frame_needed = 0, uses_anonymous_args = 0
 233:../../base/./simpleserial/simpleserial.c ****     if (!output) return;
 580              		.loc 1 233 5 view .LVU160
 232:../../base/./simpleserial/simpleserial.c ****     if (!output) return;
 581              		.loc 1 232 1 is_stmt 0 view .LVU161
 582 0000 70B5     		push	{r4, r5, r6, lr}
 583              	.LCFI8:
 584              		.cfi_def_cfa_offset 16
 585              		.cfi_offset 4, -16
 586              		.cfi_offset 5, -12
 587              		.cfi_offset 6, -8
 588              		.cfi_offset 14, -4
 589 0002 0C46     		mov	r4, r1
 590 0004 C0B0     		sub	sp, sp, #256
 591              	.LCFI9:
 592              		.cfi_def_cfa_offset 272
 593              		.loc 1 233 8 view .LVU162
 594 0006 1146     		mov	r1, r2
 595              	.LVL57:
 596              		.loc 1 233 8 view .LVU163
 597 0008 4AB3     		cbz	r2, .L47
 234:../../base/./simpleserial/simpleserial.c **** 	uint8_t data_buf[MAX_SS_LEN];
 598              		.loc 1 234 2 is_stmt 1 view .LVU164
 235:../../base/./simpleserial/simpleserial.c **** 	data_buf[0] = 0x00;
 599              		.loc 1 235 2 view .LVU165
 236:../../base/./simpleserial/simpleserial.c **** 	data_buf[1] = c;
 237:../../base/./simpleserial/simpleserial.c **** 	data_buf[2] = size;
 238:../../base/./simpleserial/simpleserial.c **** 	int i = 0;
 239:../../base/./simpleserial/simpleserial.c **** 	for (; i < size; i++) {
 240:../../base/./simpleserial/simpleserial.c **** 		data_buf[i + 3] = output[i];
 600              		.loc 1 240 19 is_stmt 0 view .LVU166
 601 000a 2246     		mov	r2, r4
 602              	.LVL58:
 235:../../base/./simpleserial/simpleserial.c **** 	data_buf[0] = 0x00;
 603              		.loc 1 235 14 view .LVU167
 604 000c 0025     		movs	r5, #0
 236:../../base/./simpleserial/simpleserial.c **** 	data_buf[1] = c;
 605              		.loc 1 236 14 view .LVU168
 606 000e 8DF80500 		strb	r0, [sp, #5]
 607              		.loc 1 240 19 view .LVU169
 608 0012 0DF10700 		add	r0, sp, #7
 609              	.LVL59:
 237:../../base/./simpleserial/simpleserial.c **** 	int i = 0;
 610              		.loc 1 237 14 view .LVU170
 611 0016 8DF80640 		strb	r4, [sp, #6]
 235:../../base/./simpleserial/simpleserial.c **** 	data_buf[0] = 0x00;
 612              		.loc 1 235 14 view .LVU171
 613 001a 8DF80450 		strb	r5, [sp, #4]
 236:../../base/./simpleserial/simpleserial.c **** 	data_buf[1] = c;
 614              		.loc 1 236 2 is_stmt 1 view .LVU172
 237:../../base/./simpleserial/simpleserial.c **** 	int i = 0;
 615              		.loc 1 237 2 view .LVU173
 238:../../base/./simpleserial/simpleserial.c **** 	for (; i < size; i++) {
 616              		.loc 1 238 2 view .LVU174
 617              	.LVL60:
 239:../../base/./simpleserial/simpleserial.c **** 		data_buf[i + 3] = output[i];
 618              		.loc 1 239 2 view .LVU175
 619              		.loc 1 240 19 is_stmt 0 view .LVU176
 620 001e FFF7FEFF 		bl	memcpy
 621              	.LVL61:
 241:../../base/./simpleserial/simpleserial.c **** 	}
 242:../../base/./simpleserial/simpleserial.c **** 	data_buf[i + 3] = ss_crc(data_buf+1, size+2);
 622              		.loc 1 242 2 is_stmt 1 view .LVU177
 623              		.loc 1 242 20 is_stmt 0 view .LVU178
 624 0022 A11C     		adds	r1, r4, #2
 625 0024 C9B2     		uxtb	r1, r1
 626 0026 0DF10500 		add	r0, sp, #5
 627 002a FFF7FEFF 		bl	ss_crc
 628              	.LVL62:
 629              		.loc 1 242 18 view .LVU179
 630 002e 04F58073 		add	r3, r4, #256
 631 0032 6B44     		add	r3, sp, r3
 243:../../base/./simpleserial/simpleserial.c **** 	data_buf[i + 4] = 0x00;
 632              		.loc 1 243 13 view .LVU180
 633 0034 261D     		adds	r6, r4, #4
 242:../../base/./simpleserial/simpleserial.c **** 	data_buf[i + 4] = 0x00;
 634              		.loc 1 242 18 view .LVU181
 635 0036 03F8F90C 		strb	r0, [r3, #-249]
 636              		.loc 1 243 2 is_stmt 1 view .LVU182
 637              		.loc 1 243 18 is_stmt 0 view .LVU183
 638 003a 06F58073 		add	r3, r6, #256
 639 003e 6B44     		add	r3, sp, r3
 244:../../base/./simpleserial/simpleserial.c **** 	stuff_data(data_buf, i + 5);
 640              		.loc 1 244 2 view .LVU184
 641 0040 611D     		adds	r1, r4, #5
 642 0042 C9B2     		uxtb	r1, r1
 643 0044 01A8     		add	r0, sp, #4
 243:../../base/./simpleserial/simpleserial.c **** 	data_buf[i + 4] = 0x00;
 644              		.loc 1 243 18 view .LVU185
 645 0046 03F8FC5C 		strb	r5, [r3, #-252]
 646              		.loc 1 244 2 is_stmt 1 view .LVU186
 647 004a FFF7FEFF 		bl	stuff_data
 648              	.LVL63:
 245:../../base/./simpleserial/simpleserial.c **** 	for (int i = 0; i < size + 5; i++) {
 649              		.loc 1 245 2 view .LVU187
 650              	.LBB10:
 651              		.loc 1 245 7 view .LVU188
 652              		.loc 1 245 20 view .LVU189
 653 004e 01AC     		add	r4, sp, #4
 654              	.LVL64:
 655              	.L49:
 246:../../base/./simpleserial/simpleserial.c **** 		putch(data_buf[i]);
 656              		.loc 1 246 3 discriminator 3 view .LVU190
 657 0050 14F8010B 		ldrb	r0, [r4], #1	@ zero_extendqisi2
 245:../../base/./simpleserial/simpleserial.c **** 	for (int i = 0; i < size + 5; i++) {
 658              		.loc 1 245 33 is_stmt 0 discriminator 3 view .LVU191
 659 0054 0135     		adds	r5, r5, #1
 660              	.LVL65:
 661              		.loc 1 246 3 discriminator 3 view .LVU192
 662 0056 FFF7FEFF 		bl	putch
 663              	.LVL66:
 245:../../base/./simpleserial/simpleserial.c **** 	for (int i = 0; i < size + 5; i++) {
 664              		.loc 1 245 33 is_stmt 1 discriminator 3 view .LVU193
 245:../../base/./simpleserial/simpleserial.c **** 	for (int i = 0; i < size + 5; i++) {
 665              		.loc 1 245 20 discriminator 3 view .LVU194
 666 005a AE42     		cmp	r6, r5
 667 005c F8DA     		bge	.L49
 668              	.LVL67:
 669              	.L47:
 245:../../base/./simpleserial/simpleserial.c **** 	for (int i = 0; i < size + 5; i++) {
 670              		.loc 1 245 20 is_stmt 0 discriminator 3 view .LVU195
 671              	.LBE10:
 247:../../base/./simpleserial/simpleserial.c **** 	}
 248:../../base/./simpleserial/simpleserial.c **** }
 672              		.loc 1 248 1 view .LVU196
 673 005e 40B0     		add	sp, sp, #256
 674              	.LCFI10:
 675              		.cfi_def_cfa_offset 16
 676              		@ sp needed
 677 0060 70BD     		pop	{r4, r5, r6, pc}
 678              		.cfi_endproc
 679              	.LFE10:
 681              		.section	.text.check_version,"ax",%progbits
 682              		.align	1
 683              		.global	check_version
 684              		.syntax unified
 685              		.thumb
 686              		.thumb_func
 688              	check_version:
 689              	.LVL68:
 690              	.LFB3:
  89:../../base/./simpleserial/simpleserial.c **** 	uint8_t ver = SS_VER;
 691              		.loc 1 89 1 is_stmt 1 view -0
 692              		.cfi_startproc
 693              		@ args = 0, pretend = 0, frame = 8
 694              		@ frame_needed = 0, uses_anonymous_args = 0
  90:../../base/./simpleserial/simpleserial.c **** 	simpleserial_put('r', 1, &ver);
 695              		.loc 1 90 2 view .LVU198
  89:../../base/./simpleserial/simpleserial.c **** 	uint8_t ver = SS_VER;
 696              		.loc 1 89 1 is_stmt 0 view .LVU199
 697 0000 07B5     		push	{r0, r1, r2, lr}
 698              	.LCFI11:
 699              		.cfi_def_cfa_offset 16
 700              		.cfi_offset 14, -4
  90:../../base/./simpleserial/simpleserial.c **** 	simpleserial_put('r', 1, &ver);
 701              		.loc 1 90 10 view .LVU200
 702 0002 0323     		movs	r3, #3
 703              	.LVL69:
  91:../../base/./simpleserial/simpleserial.c **** 	return SS_ERR_OK;
 704              		.loc 1 91 2 view .LVU201
 705 0004 0DF10702 		add	r2, sp, #7
 706              	.LVL70:
  91:../../base/./simpleserial/simpleserial.c **** 	return SS_ERR_OK;
 707              		.loc 1 91 2 view .LVU202
 708 0008 0121     		movs	r1, #1
 709              	.LVL71:
  91:../../base/./simpleserial/simpleserial.c **** 	return SS_ERR_OK;
 710              		.loc 1 91 2 view .LVU203
 711 000a 7220     		movs	r0, #114
 712              	.LVL72:
  90:../../base/./simpleserial/simpleserial.c **** 	simpleserial_put('r', 1, &ver);
 713              		.loc 1 90 10 view .LVU204
 714 000c 8DF80730 		strb	r3, [sp, #7]
  91:../../base/./simpleserial/simpleserial.c **** 	return SS_ERR_OK;
 715              		.loc 1 91 2 is_stmt 1 view .LVU205
 716 0010 FFF7FEFF 		bl	simpleserial_put
 717              	.LVL73:
  92:../../base/./simpleserial/simpleserial.c **** }
 718              		.loc 1 92 2 view .LVU206
  93:../../base/./simpleserial/simpleserial.c **** 
 719              		.loc 1 93 1 is_stmt 0 view .LVU207
 720 0014 0020     		movs	r0, #0
 721 0016 03B0     		add	sp, sp, #12
 722              	.LCFI12:
 723              		.cfi_def_cfa_offset 4
 724              		@ sp needed
 725 0018 5DF804FB 		ldr	pc, [sp], #4
 726              		.cfi_endproc
 727              	.LFE3:
 729              		.section	.text.ss_get_commands,"ax",%progbits
 730              		.align	1
 731              		.global	ss_get_commands
 732              		.syntax unified
 733              		.thumb
 734              		.thumb_func
 736              	ss_get_commands:
 737              	.LVL74:
 738              	.LFB4:
  96:../../base/./simpleserial/simpleserial.c ****     uint8_t cmd_chars[MAX_SS_CMDS];
 739              		.loc 1 96 1 is_stmt 1 view -0
 740              		.cfi_startproc
 741              		@ args = 0, pretend = 0, frame = 32
 742              		@ frame_needed = 0, uses_anonymous_args = 0
  97:../../base/./simpleserial/simpleserial.c ****     for (uint8_t i = 0; i < (num_commands & 0xFF); i++) {
 743              		.loc 1 97 5 view .LVU209
  98:../../base/./simpleserial/simpleserial.c ****         cmd_chars[i] = commands[i].c;
 744              		.loc 1 98 5 view .LVU210
 745              	.LBB11:
  98:../../base/./simpleserial/simpleserial.c ****         cmd_chars[i] = commands[i].c;
 746              		.loc 1 98 10 view .LVU211
  98:../../base/./simpleserial/simpleserial.c ****         cmd_chars[i] = commands[i].c;
 747              		.loc 1 98 10 is_stmt 0 view .LVU212
 748              	.LBE11:
  96:../../base/./simpleserial/simpleserial.c ****     uint8_t cmd_chars[MAX_SS_CMDS];
 749              		.loc 1 96 1 view .LVU213
 750 0000 30B5     		push	{r4, r5, lr}
 751              	.LCFI13:
 752              		.cfi_def_cfa_offset 12
 753              		.cfi_offset 4, -12
 754              		.cfi_offset 5, -8
 755              		.cfi_offset 14, -4
 756              	.LBB12:
  98:../../base/./simpleserial/simpleserial.c ****         cmd_chars[i] = commands[i].c;
 757              		.loc 1 98 43 view .LVU214
 758 0002 0D48     		ldr	r0, .L56
 759              	.LVL75:
  98:../../base/./simpleserial/simpleserial.c ****         cmd_chars[i] = commands[i].c;
 760              		.loc 1 98 43 view .LVU215
 761 0004 0178     		ldrb	r1, [r0]	@ zero_extendqisi2
 762              	.LVL76:
  98:../../base/./simpleserial/simpleserial.c ****         cmd_chars[i] = commands[i].c;
 763              		.loc 1 98 43 view .LVU216
 764              	.LBE12:
  96:../../base/./simpleserial/simpleserial.c ****     uint8_t cmd_chars[MAX_SS_CMDS];
 765              		.loc 1 96 1 view .LVU217
 766 0006 89B0     		sub	sp, sp, #36
 767              	.LCFI14:
 768              		.cfi_def_cfa_offset 48
 769              	.LBB13:
  98:../../base/./simpleserial/simpleserial.c ****         cmd_chars[i] = commands[i].c;
 770              		.loc 1 98 5 view .LVU218
 771 0008 0022     		movs	r2, #0
 772              	.LVL77:
  99:../../base/./simpleserial/simpleserial.c ****     }
 773              		.loc 1 99 35 view .LVU219
 774 000a 0C24     		movs	r4, #12
 775              	.LVL78:
 776              	.L54:
  98:../../base/./simpleserial/simpleserial.c ****         cmd_chars[i] = commands[i].c;
 777              		.loc 1 98 27 is_stmt 1 discriminator 1 view .LVU220
 778 000c D3B2     		uxtb	r3, r2
 779 000e 8B42     		cmp	r3, r1
 780 0010 02F10102 		add	r2, r2, #1
 781              	.LVL79:
  98:../../base/./simpleserial/simpleserial.c ****         cmd_chars[i] = commands[i].c;
 782              		.loc 1 98 27 is_stmt 0 discriminator 1 view .LVU221
 783 0014 06DB     		blt	.L55
 784              	.LBE13:
 102:../../base/./simpleserial/simpleserial.c ****     return 0x00;
 785              		.loc 1 102 5 is_stmt 1 view .LVU222
 786 0016 6A46     		mov	r2, sp
 787 0018 7220     		movs	r0, #114
 788 001a FFF7FEFF 		bl	simpleserial_put
 789              	.LVL80:
 103:../../base/./simpleserial/simpleserial.c **** 
 790              		.loc 1 103 5 view .LVU223
 105:../../base/./simpleserial/simpleserial.c **** 
 791              		.loc 1 105 1 is_stmt 0 view .LVU224
 792 001e 0020     		movs	r0, #0
 793 0020 09B0     		add	sp, sp, #36
 794              	.LCFI15:
 795              		.cfi_remember_state
 796              		.cfi_def_cfa_offset 12
 797              		@ sp needed
 798 0022 30BD     		pop	{r4, r5, pc}
 799              	.LVL81:
 800              	.L55:
 801              	.LCFI16:
 802              		.cfi_restore_state
 803              	.LBB14:
  99:../../base/./simpleserial/simpleserial.c ****     }
 804              		.loc 1 99 9 is_stmt 1 discriminator 3 view .LVU225
  99:../../base/./simpleserial/simpleserial.c ****     }
 805              		.loc 1 99 22 is_stmt 0 discriminator 3 view .LVU226
 806 0024 03F12005 		add	r5, r3, #32
  99:../../base/./simpleserial/simpleserial.c ****     }
 807              		.loc 1 99 35 discriminator 3 view .LVU227
 808 0028 04FB0303 		mla	r3, r4, r3, r0
 809              	.LVL82:
  99:../../base/./simpleserial/simpleserial.c ****     }
 810              		.loc 1 99 22 discriminator 3 view .LVU228
 811 002c 6D44     		add	r5, sp, r5
 812              	.LVL83:
  99:../../base/./simpleserial/simpleserial.c ****     }
 813              		.loc 1 99 22 discriminator 3 view .LVU229
 814 002e 1B79     		ldrb	r3, [r3, #4]	@ zero_extendqisi2
 815 0030 05F8203C 		strb	r3, [r5, #-32]
  98:../../base/./simpleserial/simpleserial.c ****         cmd_chars[i] = commands[i].c;
 816              		.loc 1 98 53 is_stmt 1 discriminator 3 view .LVU230
 817              	.LVL84:
  98:../../base/./simpleserial/simpleserial.c ****         cmd_chars[i] = commands[i].c;
 818              		.loc 1 98 53 is_stmt 0 discriminator 3 view .LVU231
 819 0034 EAE7     		b	.L54
 820              	.L57:
 821 0036 00BF     		.align	2
 822              	.L56:
 823 0038 00000000 		.word	.LANCHOR0
 824              	.LBE14:
 825              		.cfi_endproc
 826              	.LFE4:
 828              		.section	.text.simpleserial_get,"ax",%progbits
 829              		.align	1
 830              		.global	simpleserial_get
 831              		.syntax unified
 832              		.thumb
 833              		.thumb_func
 835              	simpleserial_get:
 836              	.LFB9:
 163:../../base/./simpleserial/simpleserial.c **** 	uint8_t data_buf[MAX_SS_LEN];
 837              		.loc 1 163 1 is_stmt 1 view -0
 838              		.cfi_startproc
 839              		@ args = 0, pretend = 0, frame = 256
 840              		@ frame_needed = 0, uses_anonymous_args = 0
 164:../../base/./simpleserial/simpleserial.c **** 	uint8_t err = 0;
 841              		.loc 1 164 2 view .LVU233
 165:../../base/./simpleserial/simpleserial.c **** 
 842              		.loc 1 165 2 view .LVU234
 163:../../base/./simpleserial/simpleserial.c **** 	uint8_t data_buf[MAX_SS_LEN];
 843              		.loc 1 163 1 is_stmt 0 view .LVU235
 844 0000 2DE9F047 		push	{r4, r5, r6, r7, r8, r9, r10, lr}
 845              	.LCFI17:
 846              		.cfi_def_cfa_offset 32
 847              		.cfi_offset 4, -32
 848              		.cfi_offset 5, -28
 849              		.cfi_offset 6, -24
 850              		.cfi_offset 7, -20
 851              		.cfi_offset 8, -16
 852              		.cfi_offset 9, -12
 853              		.cfi_offset 10, -8
 854              		.cfi_offset 14, -4
 855 0004 C0B0     		sub	sp, sp, #256
 856              	.LCFI18:
 857              		.cfi_def_cfa_offset 288
 165:../../base/./simpleserial/simpleserial.c **** 
 858              		.loc 1 165 10 view .LVU236
 859 0006 0024     		movs	r4, #0
 860 0008 01AD     		add	r5, sp, #4
 861 000a 8DF80340 		strb	r4, [sp, #3]
 167:../../base/./simpleserial/simpleserial.c **** 		data_buf[i] = getch(); //PTR, cmd, scmd, len
 862              		.loc 1 167 2 is_stmt 1 view .LVU237
 863              	.LBB15:
 167:../../base/./simpleserial/simpleserial.c **** 		data_buf[i] = getch(); //PTR, cmd, scmd, len
 864              		.loc 1 167 7 view .LVU238
 865              	.LVL85:
 167:../../base/./simpleserial/simpleserial.c **** 		data_buf[i] = getch(); //PTR, cmd, scmd, len
 866              		.loc 1 167 20 view .LVU239
 867 000e A946     		mov	r9, r5
 868              	.LVL86:
 869              	.L61:
 168:../../base/./simpleserial/simpleserial.c **** 		if (data_buf[i] == FRAME_BYTE) {
 870              		.loc 1 168 3 view .LVU240
 168:../../base/./simpleserial/simpleserial.c **** 		if (data_buf[i] == FRAME_BYTE) {
 871              		.loc 1 168 17 is_stmt 0 view .LVU241
 872 0010 FFF7FEFF 		bl	getch
 873              	.LVL87:
 168:../../base/./simpleserial/simpleserial.c **** 		if (data_buf[i] == FRAME_BYTE) {
 874              		.loc 1 168 15 view .LVU242
 875 0014 05F8010B 		strb	r0, [r5], #1
 169:../../base/./simpleserial/simpleserial.c **** 			err = SS_ERR_FRAME_BYTE;
 876              		.loc 1 169 3 is_stmt 1 view .LVU243
 169:../../base/./simpleserial/simpleserial.c **** 			err = SS_ERR_FRAME_BYTE;
 877              		.loc 1 169 6 is_stmt 0 view .LVU244
 878 0018 58B9     		cbnz	r0, .L59
 879              	.LVL88:
 880              	.L66:
 170:../../base/./simpleserial/simpleserial.c **** 			goto ERROR;
 881              		.loc 1 170 4 is_stmt 1 view .LVU245
 171:../../base/./simpleserial/simpleserial.c **** 		}
 882              		.loc 1 171 4 view .LVU246
 883 001a 0520     		movs	r0, #5
 884              	.L60:
 170:../../base/./simpleserial/simpleserial.c **** 			goto ERROR;
 885              		.loc 1 170 8 is_stmt 0 view .LVU247
 886 001c 8DF80300 		strb	r0, [sp, #3]
 887              	.LBE15:
 227:../../base/./simpleserial/simpleserial.c **** 	return;
 888              		.loc 1 227 2 is_stmt 1 view .LVU248
 889 0020 0DF10302 		add	r2, sp, #3
 890 0024 0121     		movs	r1, #1
 891 0026 6520     		movs	r0, #101
 892 0028 FFF7FEFF 		bl	simpleserial_put
 893              	.LVL89:
 228:../../base/./simpleserial/simpleserial.c **** }
 894              		.loc 1 228 2 view .LVU249
 229:../../base/./simpleserial/simpleserial.c **** 
 895              		.loc 1 229 1 is_stmt 0 view .LVU250
 896 002c 40B0     		add	sp, sp, #256
 897              	.LCFI19:
 898              		.cfi_remember_state
 899              		.cfi_def_cfa_offset 32
 900              		@ sp needed
 901 002e BDE8F087 		pop	{r4, r5, r6, r7, r8, r9, r10, pc}
 902              	.LVL90:
 903              	.L59:
 904              	.LCFI20:
 905              		.cfi_restore_state
 906              	.LBB16:
 167:../../base/./simpleserial/simpleserial.c **** 		data_buf[i] = getch(); //PTR, cmd, scmd, len
 907              		.loc 1 167 26 is_stmt 1 discriminator 2 view .LVU251
 908 0032 0134     		adds	r4, r4, #1
 909              	.LVL91:
 167:../../base/./simpleserial/simpleserial.c **** 		data_buf[i] = getch(); //PTR, cmd, scmd, len
 910              		.loc 1 167 20 discriminator 2 view .LVU252
 911 0034 042C     		cmp	r4, #4
 912 0036 EBD1     		bne	.L61
 913              	.LBE16:
 174:../../base/./simpleserial/simpleserial.c **** 
 914              		.loc 1 174 2 view .LVU253
 174:../../base/./simpleserial/simpleserial.c **** 
 915              		.loc 1 174 23 is_stmt 0 view .LVU254
 916 0038 2146     		mov	r1, r4
 917 003a 4846     		mov	r0, r9
 918 003c FFF7FEFF 		bl	unstuff_data
 919              	.LVL92:
 178:../../base/./simpleserial/simpleserial.c **** 	{
 920              		.loc 1 178 15 view .LVU255
 921 0040 2C4E     		ldr	r6, .L76
 180:../../base/./simpleserial/simpleserial.c **** 			break;
 922              		.loc 1 180 31 view .LVU256
 923 0042 9DF80510 		ldrb	r1, [sp, #5]	@ zero_extendqisi2
 178:../../base/./simpleserial/simpleserial.c **** 	{
 924              		.loc 1 178 15 view .LVU257
 925 0046 3268     		ldr	r2, [r6]
 174:../../base/./simpleserial/simpleserial.c **** 
 926              		.loc 1 174 23 view .LVU258
 927 0048 0746     		mov	r7, r0
 928              	.LVL93:
 177:../../base/./simpleserial/simpleserial.c **** 	for(c = 0; c < num_commands; c++)
 929              		.loc 1 177 2 is_stmt 1 view .LVU259
 178:../../base/./simpleserial/simpleserial.c **** 	{
 930              		.loc 1 178 2 view .LVU260
 178:../../base/./simpleserial/simpleserial.c **** 	{
 931              		.loc 1 178 2 is_stmt 0 view .LVU261
 932 004a 0023     		movs	r3, #0
 180:../../base/./simpleserial/simpleserial.c **** 			break;
 933              		.loc 1 180 17 view .LVU262
 934 004c 0C20     		movs	r0, #12
 935              	.LVL94:
 936              	.L62:
 178:../../base/./simpleserial/simpleserial.c **** 	{
 937              		.loc 1 178 15 is_stmt 1 discriminator 1 view .LVU263
 938 004e 5FFA83F8 		uxtb	r8, r3
 939 0052 9045     		cmp	r8, r2
 940 0054 02DB     		blt	.L64
 184:../../base/./simpleserial/simpleserial.c **** 		err = SS_ERR_CMD;
 941              		.loc 1 184 2 view .LVU264
 184:../../base/./simpleserial/simpleserial.c **** 		err = SS_ERR_CMD;
 942              		.loc 1 184 5 is_stmt 0 view .LVU265
 943 0056 07D1     		bne	.L63
 944 0058 0120     		movs	r0, #1
 945 005a DFE7     		b	.L60
 946              	.L64:
 180:../../base/./simpleserial/simpleserial.c **** 			break;
 947              		.loc 1 180 3 is_stmt 1 view .LVU266
 180:../../base/./simpleserial/simpleserial.c **** 			break;
 948              		.loc 1 180 17 is_stmt 0 view .LVU267
 949 005c 00FB0865 		mla	r5, r0, r8, r6
 180:../../base/./simpleserial/simpleserial.c **** 			break;
 950              		.loc 1 180 5 view .LVU268
 951 0060 0133     		adds	r3, r3, #1
 952              	.LVL95:
 180:../../base/./simpleserial/simpleserial.c **** 			break;
 953              		.loc 1 180 5 view .LVU269
 954 0062 2D79     		ldrb	r5, [r5, #4]	@ zero_extendqisi2
 955 0064 8D42     		cmp	r5, r1
 956 0066 F2D1     		bne	.L62
 957              	.L63:
 191:../../base/./simpleserial/simpleserial.c **** 		err = SS_ERR_LEN;
 958              		.loc 1 191 2 is_stmt 1 view .LVU270
 191:../../base/./simpleserial/simpleserial.c **** 		err = SS_ERR_LEN;
 959              		.loc 1 191 15 is_stmt 0 view .LVU271
 960 0068 9DF80730 		ldrb	r3, [sp, #7]	@ zero_extendqisi2
 191:../../base/./simpleserial/simpleserial.c **** 		err = SS_ERR_LEN;
 961              		.loc 1 191 19 view .LVU272
 962 006c 0533     		adds	r3, r3, #5
 191:../../base/./simpleserial/simpleserial.c **** 		err = SS_ERR_LEN;
 963              		.loc 1 191 5 view .LVU273
 964 006e BB42     		cmp	r3, r7
 965 0070 02DA     		bge	.L65
 966              	.LVL96:
 967              	.L67:
 192:../../base/./simpleserial/simpleserial.c **** 		goto ERROR;
 968              		.loc 1 192 3 is_stmt 1 view .LVU274
 193:../../base/./simpleserial/simpleserial.c **** 	}
 969              		.loc 1 193 3 view .LVU275
 970 0072 0420     		movs	r0, #4
 971 0074 D2E7     		b	.L60
 972              	.LVL97:
 973              	.L69:
 199:../../base/./simpleserial/simpleserial.c **** 		data_buf[i] = getch();
 974              		.loc 1 199 31 is_stmt 0 view .LVU276
 975 0076 2C46     		mov	r4, r5
 976              	.LVL98:
 977              	.L65:
 200:../../base/./simpleserial/simpleserial.c **** 		if (data_buf[i] == FRAME_BYTE) {
 978              		.loc 1 200 3 is_stmt 1 view .LVU277
 200:../../base/./simpleserial/simpleserial.c **** 		if (data_buf[i] == FRAME_BYTE) {
 979              		.loc 1 200 17 is_stmt 0 view .LVU278
 980 0078 FFF7FEFF 		bl	getch
 981              	.LVL99:
 200:../../base/./simpleserial/simpleserial.c **** 		if (data_buf[i] == FRAME_BYTE) {
 982              		.loc 1 200 15 view .LVU279
 983 007c 09F80400 		strb	r0, [r9, r4]
 201:../../base/./simpleserial/simpleserial.c **** 			err = SS_ERR_FRAME_BYTE;
 984              		.loc 1 201 3 is_stmt 1 view .LVU280
 201:../../base/./simpleserial/simpleserial.c **** 			err = SS_ERR_FRAME_BYTE;
 985              		.loc 1 201 6 is_stmt 0 view .LVU281
 986 0080 0028     		cmp	r0, #0
 987 0082 CAD0     		beq	.L66
 199:../../base/./simpleserial/simpleserial.c **** 		data_buf[i] = getch();
 988              		.loc 1 199 31 is_stmt 1 view .LVU282
 199:../../base/./simpleserial/simpleserial.c **** 		data_buf[i] = getch();
 989              		.loc 1 199 21 is_stmt 0 view .LVU283
 990 0084 9DF80730 		ldrb	r3, [sp, #7]	@ zero_extendqisi2
 199:../../base/./simpleserial/simpleserial.c **** 		data_buf[i] = getch();
 991              		.loc 1 199 31 view .LVU284
 992 0088 651C     		adds	r5, r4, #1
 993              	.LVL100:
 199:../../base/./simpleserial/simpleserial.c **** 		data_buf[i] = getch();
 994              		.loc 1 199 11 is_stmt 1 view .LVU285
 995 008a 0433     		adds	r3, r3, #4
 996 008c AB42     		cmp	r3, r5
 997 008e F2DA     		bge	.L69
 208:../../base/./simpleserial/simpleserial.c **** 	if (data_buf[i] != FRAME_BYTE) {
 998              		.loc 1 208 2 view .LVU286
 208:../../base/./simpleserial/simpleserial.c **** 	if (data_buf[i] != FRAME_BYTE) {
 999              		.loc 1 208 16 is_stmt 0 view .LVU287
 1000 0090 FFF7FEFF 		bl	getch
 1001              	.LVL101:
 208:../../base/./simpleserial/simpleserial.c **** 	if (data_buf[i] != FRAME_BYTE) {
 1002              		.loc 1 208 14 view .LVU288
 1003 0094 05F58073 		add	r3, r5, #256
 1004 0098 6B44     		add	r3, sp, r3
 1005 009a 03F8FC0C 		strb	r0, [r3, #-252]
 209:../../base/./simpleserial/simpleserial.c **** 		err = SS_ERR_LEN;
 1006              		.loc 1 209 2 is_stmt 1 view .LVU289
 209:../../base/./simpleserial/simpleserial.c **** 		err = SS_ERR_LEN;
 1007              		.loc 1 209 5 is_stmt 0 view .LVU290
 1008 009e 0028     		cmp	r0, #0
 1009 00a0 E7D1     		bne	.L67
 215:../../base/./simpleserial/simpleserial.c **** 
 1010              		.loc 1 215 2 is_stmt 1 view .LVU291
 1011 00a2 C7F10103 		rsb	r3, r7, #1
 1012 00a6 53FA85F1 		uxtab	r1, r3, r5
 1013 00aa C9B2     		uxtb	r1, r1
 215:../../base/./simpleserial/simpleserial.c **** 
 1014              		.loc 1 215 40 is_stmt 0 view .LVU292
 1015 00ac 5FFA85FA 		uxtb	r10, r5
 215:../../base/./simpleserial/simpleserial.c **** 
 1016              		.loc 1 215 2 view .LVU293
 1017 00b0 09EB0700 		add	r0, r9, r7
 1018 00b4 FFF7FEFF 		bl	unstuff_data
 1019              	.LVL102:
 218:../../base/./simpleserial/simpleserial.c **** 	if (crc != data_buf[i-1]) {
 1020              		.loc 1 218 2 is_stmt 1 view .LVU294
 218:../../base/./simpleserial/simpleserial.c **** 	if (crc != data_buf[i-1]) {
 1021              		.loc 1 218 16 is_stmt 0 view .LVU295
 1022 00b8 AAF10201 		sub	r1, r10, #2
 1023 00bc C9B2     		uxtb	r1, r1
 1024 00be 0DF10500 		add	r0, sp, #5
 1025 00c2 FFF7FEFF 		bl	ss_crc
 1026              	.LVL103:
 219:../../base/./simpleserial/simpleserial.c **** 		err = SS_ERR_CRC;
 1027              		.loc 1 219 2 is_stmt 1 view .LVU296
 219:../../base/./simpleserial/simpleserial.c **** 		err = SS_ERR_CRC;
 1028              		.loc 1 219 21 is_stmt 0 view .LVU297
 1029 00c6 04F58073 		add	r3, r4, #256
 1030 00ca 0DEB0304 		add	r4, sp, r3
 219:../../base/./simpleserial/simpleserial.c **** 		err = SS_ERR_CRC;
 1031              		.loc 1 219 5 view .LVU298
 1032 00ce 14F8FC3C 		ldrb	r3, [r4, #-252]	@ zero_extendqisi2
 1033 00d2 8342     		cmp	r3, r0
 1034 00d4 0CD1     		bne	.L70
 224:../../base/./simpleserial/simpleserial.c **** 
 1035              		.loc 1 224 2 is_stmt 1 view .LVU299
 224:../../base/./simpleserial/simpleserial.c **** 
 1036              		.loc 1 224 19 is_stmt 0 view .LVU300
 1037 00d6 0C23     		movs	r3, #12
 1038 00d8 03FB0866 		mla	r6, r3, r8, r6
 224:../../base/./simpleserial/simpleserial.c **** 
 1039              		.loc 1 224 8 view .LVU301
 1040 00dc 9DF80720 		ldrb	r2, [sp, #7]	@ zero_extendqisi2
 1041 00e0 F468     		ldr	r4, [r6, #12]
 1042 00e2 9DF80610 		ldrb	r1, [sp, #6]	@ zero_extendqisi2
 1043 00e6 9DF80500 		ldrb	r0, [sp, #5]	@ zero_extendqisi2
 1044              	.LVL104:
 224:../../base/./simpleserial/simpleserial.c **** 
 1045              		.loc 1 224 8 view .LVU302
 1046 00ea 02AB     		add	r3, sp, #8
 1047 00ec A047     		blx	r4
 1048              	.LVL105:
 1049 00ee 95E7     		b	.L60
 1050              	.LVL106:
 1051              	.L70:
 224:../../base/./simpleserial/simpleserial.c **** 
 1052              		.loc 1 224 8 view .LVU303
 1053 00f0 0220     		movs	r0, #2
 1054              	.LVL107:
 224:../../base/./simpleserial/simpleserial.c **** 
 1055              		.loc 1 224 8 view .LVU304
 1056 00f2 93E7     		b	.L60
 1057              	.L77:
 1058              		.align	2
 1059              	.L76:
 1060 00f4 00000000 		.word	.LANCHOR0
 1061              		.cfi_endproc
 1062              	.LFE9:
 1064              		.bss
 1065              		.align	2
 1066              		.set	.LANCHOR0,. + 0
 1069              	num_commands:
 1070 0000 00000000 		.space	4
 1073              	commands:
 1074 0004 00000000 		.space	384
 1074      00000000 
 1074      00000000 
 1074      00000000 
 1074      00000000 
 1075              		.text
 1076              	.Letext0:
 1077              		.file 2 "/usr/lib/gcc/arm-none-eabi/12.2.1/include/stdint.h"
 1078              		.file 3 "../../base/./simpleserial/simpleserial.h"
 1079              		.file 4 "../../base/./hal/stm32f3/stm32f3_hal.h"
 1080              		.file 5 "<built-in>"